; Function Attrs: nounwind sspstrong uwtable
define internal range(i64 1, -7) i64 @range_initialize_copy(i64 noundef returned %0, i64 noundef %1) #0 {
  %3 = icmp eq i64 %0, 0
  %4 = and i64 %0, 7
  %5 = icmp ne i64 %4, 0
  %6 = or i1 %3, %5
  br i1 %6, label %RB_OBJ_FROZEN.exit.thread.i.i, label %RB_FL_ABLE.exit.i.i.i, !prof !19

RB_FL_ABLE.exit.i.i.i:                            ; preds = %2
  %7 = inttoptr i64 %0 to ptr
  %8 = load i64, ptr %7, align 8, !tbaa !11
  %9 = and i64 %8, 31
  %.not.i.i.i = icmp eq i64 %9, 27
  %10 = and i64 %8, 2048
  %11 = icmp ne i64 %10, 0
  %or.cond.i.i = or i1 %.not.i.i.i, %11
  br i1 %or.cond.i.i, label %RB_OBJ_FROZEN.exit.thread.i.i, label %rbimpl_RB_TYPE_P_fastpath.exit.i.i, !prof !20

RB_OBJ_FROZEN.exit.thread.i.i:                    ; preds = %RB_FL_ABLE.exit.i.i.i, %2
  tail call void @rb_error_frozen_object(i64 noundef %0) #14
  unreachable

rbimpl_RB_TYPE_P_fastpath.exit.i.i:               ; preds = %RB_FL_ABLE.exit.i.i.i
  %12 = icmp ne i64 %9, 5
  %13 = and i64 %8, 49152
  %.not.i.i = icmp eq i64 %13, 0
  %or.cond8.i.i = or i1 %12, %.not.i.i
  br i1 %or.cond8.i.i, label %rb_check_frozen_inline.exit.i, label %14, !prof !21

14:                                               ; preds = %rbimpl_RB_TYPE_P_fastpath.exit.i.i
  tail call void @rb_str_modify(i64 noundef %0) #13
  %.pre.i = load i64, ptr %7, align 8, !tbaa !11
  br label %rb_check_frozen_inline.exit.i

rb_check_frozen_inline.exit.i:                    ; preds = %14, %rbimpl_RB_TYPE_P_fastpath.exit.i.i
  %15 = phi i64 [ %8, %rbimpl_RB_TYPE_P_fastpath.exit.i.i ], [ %.pre.i, %14 ]
  %16 = and i64 %15, 1040384
  %.not.i.i.i.i = icmp eq i64 %16, 0
  br i1 %.not.i.i.i.i, label %19, label %17

17:                                               ; preds = %rb_check_frozen_inline.exit.i
  %18 = getelementptr inbounds nuw i8, ptr %7, i64 16
  br label %RANGE_EXCL.exit.i

19:                                               ; preds = %rb_check_frozen_inline.exit.i
  %20 = getelementptr inbounds nuw i8, ptr %7, i64 24
  %21 = load ptr, ptr %20, align 8, !tbaa !13
  br label %RANGE_EXCL.exit.i

RANGE_EXCL.exit.i:                                ; preds = %19, %17
  %.0.i.i.i.i = phi ptr [ %18, %17 ], [ %21, %19 ]
  %22 = getelementptr i8, ptr %.0.i.i.i.i, i64 16
  %23 = load i64, ptr %22, align 8, !tbaa !7
  %.not.i = icmp eq i64 %23, 4
  br i1 %.not.i, label %range_modify.exit, label %24

24:                                               ; preds = %RANGE_EXCL.exit.i
  %25 = tail call i64 @rb_id2sym(i64 noundef 3169) #13
  tail call fastcc void @rb_name_err_raise(i64 noundef %0, i64 noundef %25) #15
  unreachable

range_modify.exit:                                ; preds = %RANGE_EXCL.exit.i
  %26 = tail call i64 @rb_struct_init_copy(i64 noundef %0, i64 noundef %1) #13
  ret i64 %0
}